; ModuleID = '46/1745.c'
source_filename = "46/1745.c"
target datalayout = "e-m:e-p270:32:32-p271:32:32-p272:64:64-i64:64-f80:128-n8:16:32:64-S128"
target triple = "x86_64-pc-linux-gnu"

@.str = private unnamed_addr constant [5 x i8] c"%d%d\00", align 1
@.str.1 = private unnamed_addr constant [3 x i8] c"%d\00", align 1
@.str.2 = private unnamed_addr constant [4 x i8] c"%d\0A\00", align 1

; Function Attrs: noinline nounwind uwtable
define dso_local i32 @main() #0 {
  %1 = alloca i32, align 4
  %2 = alloca i32, align 4
  %3 = alloca i32, align 4
  %4 = alloca [100 x [100 x i32]], align 16
  %5 = alloca i32, align 4
  %6 = alloca i32, align 4
  %7 = alloca i32, align 4
  %8 = alloca i32, align 4
  %9 = alloca i32, align 4
  %10 = alloca i32, align 4
  %11 = alloca i32, align 4
  store i32 0, i32* %1, align 4
  store i32 0, i32* %11, align 4
  %12 = call i32 (i8*, ...) @__isoc99_scanf(i8* getelementptr inbounds ([5 x i8], [5 x i8]* @.str, i64 0, i64 0), i32* %5, i32* %6)
  store i32 0, i32* %3, align 4
  br label %13

13:                                               ; preds = %34, %0
  %14 = load i32, i32* %3, align 4
  %15 = load i32, i32* %5, align 4
  %16 = icmp slt i32 %14, %15
  br i1 %16, label %17, label %37

17:                                               ; preds = %13
  store i32 0, i32* %2, align 4
  br label %18

18:                                               ; preds = %30, %17
  %19 = load i32, i32* %2, align 4
  %20 = load i32, i32* %6, align 4
  %21 = icmp slt i32 %19, %20
  br i1 %21, label %22, label %33

22:                                               ; preds = %18
  %23 = load i32, i32* %3, align 4
  %24 = sext i32 %23 to i64
  %25 = getelementptr inbounds [100 x [100 x i32]], [100 x [100 x i32]]* %4, i64 0, i64 %24
  %26 = load i32, i32* %2, align 4
  %27 = sext i32 %26 to i64
  %28 = getelementptr inbounds [100 x i32], [100 x i32]* %25, i64 0, i64 %27
  %29 = call i32 (i8*, ...) @__isoc99_scanf(i8* getelementptr inbounds ([3 x i8], [3 x i8]* @.str.1, i64 0, i64 0), i32* %28)
  br label %30

30:                                               ; preds = %22
  %31 = load i32, i32* %2, align 4
  %32 = add nsw i32 %31, 1
  store i32 %32, i32* %2, align 4
  br label %18

33:                                               ; preds = %18
  br label %34

34:                                               ; preds = %33
  %35 = load i32, i32* %3, align 4
  %36 = add nsw i32 %35, 1
  store i32 %36, i32* %3, align 4
  br label %13

37:                                               ; preds = %13
  store i32 0, i32* %7, align 4
  %38 = load i32, i32* %5, align 4
  %39 = sub nsw i32 %38, 1
  store i32 %39, i32* %8, align 4
  store i32 0, i32* %9, align 4
  %40 = load i32, i32* %6, align 4
  %41 = sub nsw i32 %40, 1
  store i32 %41, i32* %10, align 4
  br label %42

42:                                               ; preds = %157, %37
  %43 = load i32, i32* %8, align 4
  %44 = load i32, i32* %7, align 4
  %45 = icmp sge i32 %43, %44
  br i1 %45, label %46, label %50

46:                                               ; preds = %42
  %47 = load i32, i32* %10, align 4
  %48 = load i32, i32* %9, align 4
  %49 = icmp sge i32 %47, %48
  br label %50

50:                                               ; preds = %46, %42
  %51 = phi i1 [ false, %42 ], [ %49, %46 ]
  br i1 %51, label %52, label %166

52:                                               ; preds = %50
  %53 = load i32, i32* %9, align 4
  store i32 %53, i32* %2, align 4
  br label %54

54:                                               ; preds = %69, %52
  %55 = load i32, i32* %2, align 4
  %56 = load i32, i32* %10, align 4
  %57 = icmp sle i32 %55, %56
  br i1 %57, label %58, label %72

58:                                               ; preds = %54
  %59 = load i32, i32* %7, align 4
  %60 = sext i32 %59 to i64
  %61 = getelementptr inbounds [100 x [100 x i32]], [100 x [100 x i32]]* %4, i64 0, i64 %60
  %62 = load i32, i32* %2, align 4
  %63 = sext i32 %62 to i64
  %64 = getelementptr inbounds [100 x i32], [100 x i32]* %61, i64 0, i64 %63
  %65 = load i32, i32* %64, align 4
  %66 = call i32 (i8*, ...) @printf(i8* getelementptr inbounds ([4 x i8], [4 x i8]* @.str.2, i64 0, i64 0), i32 %65)
  %67 = load i32, i32* %11, align 4
  %68 = add nsw i32 %67, 1
  store i32 %68, i32* %11, align 4
  br label %69

69:                                               ; preds = %58
  %70 = load i32, i32* %2, align 4
  %71 = add nsw i32 %70, 1
  store i32 %71, i32* %2, align 4
  br label %54

72:                                               ; preds = %54
  %73 = load i32, i32* %11, align 4
  %74 = load i32, i32* %5, align 4
  %75 = load i32, i32* %6, align 4
  %76 = mul nsw i32 %74, %75
  %77 = icmp eq i32 %73, %76
  br i1 %77, label %78, label %79

78:                                               ; preds = %72
  br label %166

79:                                               ; preds = %72
  %80 = load i32, i32* %7, align 4
  %81 = add nsw i32 %80, 1
  store i32 %81, i32* %3, align 4
  br label %82

82:                                               ; preds = %97, %79
  %83 = load i32, i32* %3, align 4
  %84 = load i32, i32* %8, align 4
  %85 = icmp sle i32 %83, %84
  br i1 %85, label %86, label %100

86:                                               ; preds = %82
  %87 = load i32, i32* %3, align 4
  %88 = sext i32 %87 to i64
  %89 = getelementptr inbounds [100 x [100 x i32]], [100 x [100 x i32]]* %4, i64 0, i64 %88
  %90 = load i32, i32* %10, align 4
  %91 = sext i32 %90 to i64
  %92 = getelementptr inbounds [100 x i32], [100 x i32]* %89, i64 0, i64 %91
  %93 = load i32, i32* %92, align 4
  %94 = call i32 (i8*, ...) @printf(i8* getelementptr inbounds ([4 x i8], [4 x i8]* @.str.2, i64 0, i64 0), i32 %93)
  %95 = load i32, i32* %11, align 4
  %96 = add nsw i32 %95, 1
  store i32 %96, i32* %11, align 4
  br label %97

97:                                               ; preds = %86
  %98 = load i32, i32* %3, align 4
  %99 = add nsw i32 %98, 1
  store i32 %99, i32* %3, align 4
  br label %82

100:                                              ; preds = %82
  %101 = load i32, i32* %11, align 4
  %102 = load i32, i32* %5, align 4
  %103 = load i32, i32* %6, align 4
  %104 = mul nsw i32 %102, %103
  %105 = icmp eq i32 %101, %104
  br i1 %105, label %106, label %107

106:                                              ; preds = %100
  br label %166

107:                                              ; preds = %100
  %108 = load i32, i32* %10, align 4
  %109 = sub nsw i32 %108, 1
  store i32 %109, i32* %2, align 4
  br label %110

110:                                              ; preds = %125, %107
  %111 = load i32, i32* %2, align 4
  %112 = load i32, i32* %9, align 4
  %113 = icmp sge i32 %111, %112
  br i1 %113, label %114, label %128

114:                                              ; preds = %110
  %115 = load i32, i32* %8, align 4
  %116 = sext i32 %115 to i64
  %117 = getelementptr inbounds [100 x [100 x i32]], [100 x [100 x i32]]* %4, i64 0, i64 %116
  %118 = load i32, i32* %2, align 4
  %119 = sext i32 %118 to i64
  %120 = getelementptr inbounds [100 x i32], [100 x i32]* %117, i64 0, i64 %119
  %121 = load i32, i32* %120, align 4
  %122 = call i32 (i8*, ...) @printf(i8* getelementptr inbounds ([4 x i8], [4 x i8]* @.str.2, i64 0, i64 0), i32 %121)
  %123 = load i32, i32* %11, align 4
  %124 = add nsw i32 %123, 1
  store i32 %124, i32* %11, align 4
  br label %125

125:                                              ; preds = %114
  %126 = load i32, i32* %2, align 4
  %127 = add nsw i32 %126, -1
  store i32 %127, i32* %2, align 4
  br label %110

128:                                              ; preds = %110
  %129 = load i32, i32* %11, align 4
  %130 = load i32, i32* %5, align 4
  %131 = load i32, i32* %6, align 4
  %132 = mul nsw i32 %130, %131
  %133 = icmp eq i32 %129, %132
  br i1 %133, label %134, label %135

134:                                              ; preds = %128
  br label %166

135:                                              ; preds = %128
  %136 = load i32, i32* %8, align 4
  %137 = sub nsw i32 %136, 1
  store i32 %137, i32* %3, align 4
  br label %138

138:                                              ; preds = %154, %135
  %139 = load i32, i32* %3, align 4
  %140 = load i32, i32* %7, align 4
  %141 = add nsw i32 %140, 1
  %142 = icmp sge i32 %139, %141
  br i1 %142, label %143, label %157

143:                                              ; preds = %138
  %144 = load i32, i32* %3, align 4
  %145 = sext i32 %144 to i64
  %146 = getelementptr inbounds [100 x [100 x i32]], [100 x [100 x i32]]* %4, i64 0, i64 %145
  %147 = load i32, i32* %9, align 4
  %148 = sext i32 %147 to i64
  %149 = getelementptr inbounds [100 x i32], [100 x i32]* %146, i64 0, i64 %148
  %150 = load i32, i32* %149, align 4
  %151 = call i32 (i8*, ...) @printf(i8* getelementptr inbounds ([4 x i8], [4 x i8]* @.str.2, i64 0, i64 0), i32 %150)
  %152 = load i32, i32* %11, align 4
  %153 = add nsw i32 %152, 1
  store i32 %153, i32* %11, align 4
  br label %154

154:                                              ; preds = %143
  %155 = load i32, i32* %3, align 4
  %156 = add nsw i32 %155, -1
  store i32 %156, i32* %3, align 4
  br label %138

157:                                              ; preds = %138
  %158 = load i32, i32* %9, align 4
  %159 = add nsw i32 %158, 1
  store i32 %159, i32* %9, align 4
  %160 = load i32, i32* %10, align 4
  %161 = add nsw i32 %160, -1
  store i32 %161, i32* %10, align 4
  %162 = load i32, i32* %7, align 4
  %163 = add nsw i32 %162, 1
  store i32 %163, i32* %7, align 4
  %164 = load i32, i32* %8, align 4
  %165 = add nsw i32 %164, -1
  store i32 %165, i32* %8, align 4
  br label %42

166:                                              ; preds = %134, %106, %78, %50
  ret i32 0
}

declare dso_local i32 @__isoc99_scanf(i8*, ...) #1

declare dso_local i32 @printf(i8*, ...) #1


!llvm.module.flags = !{!0}
!llvm.ident = !{!1}

!0 = !{i32 1, !"wchar_size", i32 4}
!1 = !{!"clang version 10.0.0-4ubuntu1 "}
